target datalayout = "e-m:e-p270:32:32-p271:32:32-p272:64:64-i64:64-i128:128-f80:128-n8:16:32:64-S128"
target triple = "x86_64-pc-linux-gnu"

%"struct.std::_Vector_base.1" = type { %"struct.std::_Vector_base<const Fact *, std::allocator<const Fact *>>::_Vector_impl" }
%"struct.std::_Vector_base<const Fact *, std::allocator<const Fact *>>::_Vector_impl" = type { %"struct.std::_Vector_base<const Fact *, std::allocator<const Fact *>>::_Vector_impl_data" }
%"struct.std::_Vector_base<const Fact *, std::allocator<const Fact *>>::_Vector_impl_data" = type { ptr, ptr, ptr }
%"class.std::vector.31" = type { %"struct.std::_Vector_base.32" }
%"struct.std::_Vector_base.32" = type { %"struct.std::_Vector_base<Variable *, std::allocator<Variable *>>::_Vector_impl" }
%"struct.std::_Vector_base<Variable *, std::allocator<Variable *>>::_Vector_impl" = type { %"struct.std::_Vector_base<Variable *, std::allocator<Variable *>>::_Vector_impl_data" }
%"struct.std::_Vector_base<Variable *, std::allocator<Variable *>>::_Vector_impl_data" = type { ptr, ptr, ptr }
%"class.std::__cxx11::basic_string" = type { %"struct.std::__cxx11::basic_string<char>::_Alloc_hider", i64, %union.anon }
%"struct.std::__cxx11::basic_string<char>::_Alloc_hider" = type { ptr }
%union.anon = type { i64, [8 x i8] }
%class.Variable = type { ptr, %"class.std::vector.31", %"class.std::__cxx11::basic_string", ptr, ptr, i8, i8, i8, i8, i8, i8, ptr, i8, %class.CVQualifiers }
%class.CVQualifiers = type { ptr, i8, i8, %"class.std::vector.51", %"class.std::vector.51" }
%"class.std::vector.51" = type { %"struct.std::_Bvector_base" }
%"struct.std::_Bvector_base" = type { %"struct.std::_Bvector_base<std::allocator<bool>>::_Bvector_impl" }
%"struct.std::_Bvector_base<std::allocator<bool>>::_Bvector_impl" = type { %"struct.std::_Bvector_base<std::allocator<bool>>::_Bvector_impl_data" }
%"struct.std::_Bvector_base<std::allocator<bool>>::_Bvector_impl_data" = type { %"struct.std::_Bit_iterator", %"struct.std::_Bit_iterator", ptr }
%"struct.std::_Bit_iterator" = type { %"struct.std::_Bit_iterator_base.base", [4 x i8] }
%"struct.std::_Bit_iterator_base.base" = type <{ ptr, i32 }>
%class.Fact = type <{ ptr, i32, [4 x i8] }>

@_ZN11FactPointTo11garbage_ptrE = external global ptr, align 8
@_ZN9FactUnion6BOTTOME = external constant i32, align 4
@.str.5 = private unnamed_addr constant [4 x i8] c"_rv\00", align 1

; Function Attrs: noinline noreturn nounwind uwtable
define linkonce_odr hidden void @__clang_call_terminate(ptr noundef %0) #12 comdat {
  %2 = call ptr @__cxa_begin_catch(ptr %0) #3
  call void @_ZSt9terminatev() #20
  unreachable
}

; Function Attrs: mustprogress nounwind uwtable
define linkonce_odr dso_local noundef i64 @_ZNSt11char_traitsIcE6lengthEPKc(ptr noundef %0) #4 comdat align 2 {
  %2 = alloca ptr, align 8
  store ptr %0, ptr %2, align 8, !tbaa !294
  %3 = load ptr, ptr %2, align 8, !tbaa !294
  %4 = call i64 @strlen(ptr noundef %3) #3
  ret i64 %4
}

; Function Attrs: mustprogress nounwind uwtable
define available_externally noundef i64 @_ZNKSt7__cxx1112basic_stringIcSt11char_traitsIcESaIcEE4findEPKcm(ptr noundef nonnull align 8 dereferenceable(32) %0, ptr noundef %1, i64 noundef %2) #4 align 2 personality ptr @__gxx_personality_v0 {
  %4 = alloca ptr, align 8
  %5 = alloca ptr, align 8
  %6 = alloca i64, align 8
  store ptr %0, ptr %4, align 8, !tbaa !295
  store ptr %1, ptr %5, align 8, !tbaa !294
  store i64 %2, ptr %6, align 8, !tbaa !19
  %7 = load ptr, ptr %4, align 8
  %8 = load ptr, ptr %5, align 8, !tbaa !294
  %9 = load i64, ptr %6, align 8, !tbaa !19
  %10 = load ptr, ptr %5, align 8, !tbaa !294
  %11 = invoke noundef i64 @_ZNSt11char_traitsIcE6lengthEPKc(ptr noundef %10)
          to label %12 unwind label %14

12:                                               ; preds = %3
  %13 = call noundef i64 @_ZNKSt7__cxx1112basic_stringIcSt11char_traitsIcESaIcEE4findEPKcmm(ptr noundef nonnull align 8 dereferenceable(32) %7, ptr noundef %8, i64 noundef %9, i64 noundef %11) #3
  ret i64 %13

14:                                               ; preds = %3
  %15 = landingpad { ptr, i32 }
          catch ptr null
  %16 = extractvalue { ptr, i32 } %15, 0
  call void @__clang_call_terminate(ptr %16) #20
  unreachable
}

; Function Attrs: mustprogress nounwind uwtable
define linkonce_odr dso_local noundef zeroext i1 @_ZNK8Variable5is_rvEv(ptr noundef nonnull align 8 dereferenceable(200) %0) #4 comdat align 2 {
  %2 = alloca ptr, align 8
  store ptr %0, ptr %2, align 8, !tbaa !17
  %3 = load ptr, ptr %2, align 8
  %4 = getelementptr inbounds nuw %class.Variable, ptr %3, i32 0, i32 2
  %5 = call noundef i64 @_ZNKSt7__cxx1112basic_stringIcSt11char_traitsIcESaIcEE4findEPKcm(ptr noundef nonnull align 8 dereferenceable(32) %4, ptr noundef @.str.5, i64 noundef 0) #3
  %6 = icmp ne i64 %5, -1
  ret i1 %6
}

; Function Attrs: mustprogress nounwind uwtable
define linkonce_odr dso_local noundef nonnull align 8 dereferenceable(8) ptr @_ZNSt6vectorIPK4FactSaIS2_EEixEm(ptr noundef nonnull align 8 dereferenceable(24) %0, i64 noundef %1) #4 comdat align 2 {
  %3 = alloca ptr, align 8
  %4 = alloca i64, align 8
  store ptr %0, ptr %3, align 8, !tbaa !39
  store i64 %1, ptr %4, align 8, !tbaa !19
  %5 = load ptr, ptr %3, align 8
  %6 = getelementptr inbounds nuw %"struct.std::_Vector_base.1", ptr %5, i32 0, i32 0
  %7 = getelementptr inbounds nuw %"struct.std::_Vector_base<const Fact *, std::allocator<const Fact *>>::_Vector_impl_data", ptr %6, i32 0, i32 0
  %8 = load ptr, ptr %7, align 8, !tbaa !42
  %9 = load i64, ptr %4, align 8, !tbaa !19
  %10 = getelementptr inbounds nuw ptr, ptr %8, i64 %9
  ret ptr %10
}

; Function Attrs: mustprogress nounwind uwtable
define linkonce_odr dso_local noundef i64 @_ZNKSt6vectorIPK4FactSaIS2_EE4sizeEv(ptr noundef nonnull align 8 dereferenceable(24) %0) #4 comdat align 2 {
  %2 = alloca ptr, align 8
  store ptr %0, ptr %2, align 8, !tbaa !39
  %3 = load ptr, ptr %2, align 8
  %4 = getelementptr inbounds nuw %"struct.std::_Vector_base.1", ptr %3, i32 0, i32 0
  %5 = getelementptr inbounds nuw %"struct.std::_Vector_base<const Fact *, std::allocator<const Fact *>>::_Vector_impl_data", ptr %4, i32 0, i32 1
  %6 = load ptr, ptr %5, align 8, !tbaa !41
  %7 = getelementptr inbounds nuw %"struct.std::_Vector_base.1", ptr %3, i32 0, i32 0
  %8 = getelementptr inbounds nuw %"struct.std::_Vector_base<const Fact *, std::allocator<const Fact *>>::_Vector_impl_data", ptr %7, i32 0, i32 0
  %9 = load ptr, ptr %8, align 8, !tbaa !42
  %10 = ptrtoint ptr %6 to i64
  %11 = ptrtoint ptr %9 to i64
  %12 = sub i64 %10, %11
  %13 = sdiv exact i64 %12, 8
  ret i64 %13
}

; Function Attrs: mustprogress uwtable
define dso_local noundef zeroext i1 @_ZN7FactMgr16merge_jump_factsERSt6vectorIPK4FactSaIS3_EERKS5_(ptr noundef nonnull align 8 dereferenceable(24) %0, ptr noundef nonnull align 8 dereferenceable(24) %1) #5 align 2 {
  %3 = alloca ptr, align 8
  %4 = alloca ptr, align 8
  %5 = alloca i64, align 8
  %6 = alloca i8, align 1
  %7 = alloca ptr, align 8
  %8 = alloca ptr, align 8
  store ptr %0, ptr %3, align 8, !tbaa !39
  store ptr %1, ptr %4, align 8, !tbaa !39
  call void @llvm.lifetime.start.p0(i64 8, ptr %5) #3
  call void @llvm.lifetime.start.p0(i64 1, ptr %6) #3
  store i8 0, ptr %6, align 1, !tbaa !133
  store i64 0, ptr %5, align 8, !tbaa !19
  br label %9

9:                                                ; preds = %69, %2
  %10 = load i64, ptr %5, align 8, !tbaa !19
  %11 = load ptr, ptr %3, align 8, !tbaa !39
  %12 = call noundef i64 @_ZNKSt6vectorIPK4FactSaIS2_EE4sizeEv(ptr noundef nonnull align 8 dereferenceable(24) %11) #3
  %13 = icmp ult i64 %10, %12
  br i1 %13, label %14, label %72

14:                                               ; preds = %9
  call void @llvm.lifetime.start.p0(i64 8, ptr %7) #3
  %15 = load ptr, ptr %3, align 8, !tbaa !39
  %16 = load i64, ptr %5, align 8, !tbaa !19
  %17 = call noundef nonnull align 8 dereferenceable(8) ptr @_ZNSt6vectorIPK4FactSaIS2_EEixEm(ptr noundef nonnull align 8 dereferenceable(24) %15, i64 noundef %16) #3
  %18 = load ptr, ptr %17, align 8, !tbaa !21
  store ptr %18, ptr %7, align 8, !tbaa !21
  %19 = load ptr, ptr %7, align 8, !tbaa !21
  %20 = load ptr, ptr %19, align 8, !tbaa !51
  %21 = getelementptr inbounds ptr, ptr %20, i64 15
  %22 = load ptr, ptr %21, align 8
  %23 = call noundef ptr %22(ptr noundef nonnull align 8 dereferenceable(12) %19)
  %24 = call noundef zeroext i1 @_ZNK8Variable5is_rvEv(ptr noundef nonnull align 8 dereferenceable(200) %23)
  br i1 %24, label %68, label %25

25:                                               ; preds = %14
  call void @llvm.lifetime.start.p0(i64 8, ptr %8) #3
  %26 = load ptr, ptr %4, align 8, !tbaa !39
  %27 = load ptr, ptr %7, align 8, !tbaa !21
  %28 = call noundef ptr @_Z17find_related_factRKSt6vectorIPK4FactSaIS2_EES2_(ptr noundef nonnull align 8 dereferenceable(24) %26, ptr noundef %27)
  store ptr %28, ptr %8, align 8, !tbaa !21
  %29 = load ptr, ptr %8, align 8, !tbaa !21
  %30 = icmp eq ptr %29, null
  br i1 %30, label %31, label %59

31:                                               ; preds = %25
  %32 = load ptr, ptr %7, align 8, !tbaa !21
  %33 = getelementptr inbounds nuw %class.Fact, ptr %32, i32 0, i32 1
  %34 = load i32, ptr %33, align 8, !tbaa !162
  %35 = icmp eq i32 %34, 1
  br i1 %35, label %36, label %44

36:                                               ; preds = %31
  %37 = load ptr, ptr %7, align 8, !tbaa !21
  %38 = load ptr, ptr %37, align 8, !tbaa !51
  %39 = getelementptr inbounds ptr, ptr %38, i64 15
  %40 = load ptr, ptr %39, align 8
  %41 = call noundef ptr %40(ptr noundef nonnull align 8 dereferenceable(12) %37)
  %42 = load ptr, ptr @_ZN11FactPointTo11garbage_ptrE, align 8, !tbaa !17
  %43 = call noundef ptr @_ZN11FactPointTo9make_factEPK8VariableS2_(ptr noundef %41, ptr noundef %42)
  store ptr %43, ptr %8, align 8, !tbaa !21
  br label %58

44:                                               ; preds = %31
  %45 = load ptr, ptr %7, align 8, !tbaa !21
  %46 = getelementptr inbounds nuw %class.Fact, ptr %45, i32 0, i32 1
  %47 = load i32, ptr %46, align 8, !tbaa !162
  %48 = icmp eq i32 %47, 2
  br i1 %48, label %49, label %57

49:                                               ; preds = %44
  %50 = load ptr, ptr %7, align 8, !tbaa !21
  %51 = load ptr, ptr %50, align 8, !tbaa !51
  %52 = getelementptr inbounds ptr, ptr %51, i64 15
  %53 = load ptr, ptr %52, align 8
  %54 = call noundef ptr %53(ptr noundef nonnull align 8 dereferenceable(12) %50)
  %55 = load i32, ptr @_ZN9FactUnion6BOTTOME, align 4, !tbaa !134
  %56 = call noundef ptr @_ZN9FactUnion9make_factEPK8Variablei(ptr noundef %54, i32 noundef %55)
  store ptr %56, ptr %8, align 8, !tbaa !21
  br label %57

57:                                               ; preds = %49, %44
  br label %58

58:                                               ; preds = %57, %36
  br label %59

59:                                               ; preds = %58, %25
  %60 = load ptr, ptr %8, align 8, !tbaa !21
  %61 = icmp ne ptr %60, null
  br i1 %61, label %62, label %67

62:                                               ; preds = %59
  %63 = load ptr, ptr %3, align 8, !tbaa !39
  %64 = load ptr, ptr %8, align 8, !tbaa !21
  %65 = call noundef zeroext i1 @_Z10merge_factRSt6vectorIPK4FactSaIS2_EES2_(ptr noundef nonnull align 8 dereferenceable(24) %63, ptr noundef %64)
  br i1 %65, label %66, label %67

66:                                               ; preds = %62
  store i8 1, ptr %6, align 1, !tbaa !133
  br label %67

67:                                               ; preds = %66, %62, %59
  call void @llvm.lifetime.end.p0(i64 8, ptr %8) #3
  br label %68

68:                                               ; preds = %67, %14
  call void @llvm.lifetime.end.p0(i64 8, ptr %7) #3
  br label %69

69:                                               ; preds = %68
  %70 = load i64, ptr %5, align 8, !tbaa !19
  %71 = add i64 %70, 1
  store i64 %71, ptr %5, align 8, !tbaa !19
  br label %9, !llvm.loop !275

72:                                               ; preds = %9
  %73 = load i8, ptr %6, align 1, !tbaa !133, !range !105, !noundef !106
  %74 = trunc i8 %73 to i1
  call void @llvm.lifetime.end.p0(i64 1, ptr %6) #3
  call void @llvm.lifetime.end.p0(i64 8, ptr %5) #3
  ret i1 %74
}