; Function Attrs: mustprogress uwtable
define dso_local noundef zeroext i1 @_ZN7FactMgr16merge_jump_factsERSt6vectorIPK4FactSaIS3_EERKS5_(ptr noundef nonnull align 8 dereferenceable(24) %0, ptr noundef nonnull align 8 dereferenceable(24) %1) local_unnamed_addr #4 align 2 personality ptr @__gxx_personality_v0 {
  %3 = getelementptr inbounds nuw i8, ptr %0, i64 8
  %4 = load ptr, ptr %3, align 8, !tbaa !14
  %5 = load ptr, ptr %0, align 8, !tbaa !16
  %.not30 = icmp eq ptr %4, %5
  br i1 %.not30, label %._crit_edge, label %.lr.ph

.lr.ph:                                           ; preds = %2
  %6 = load i32, ptr @_ZN9FactUnion6BOTTOME, align 4
  br label %7

7:                                                ; preds = %.lr.ph, %.thread
  %8 = phi ptr [ %5, %.lr.ph ], [ %40, %.thread ]
  %.01629 = phi i64 [ 0, %.lr.ph ], [ %38, %.thread ]
  %.01728 = phi i1 [ false, %.lr.ph ], [ %.1, %.thread ]
  %9 = getelementptr inbounds nuw ptr, ptr %8, i64 %.01629
  %10 = load ptr, ptr %9, align 8, !tbaa !12
  %11 = load ptr, ptr %10, align 8, !tbaa !36
  %12 = getelementptr inbounds nuw i8, ptr %11, i64 120
  %13 = load ptr, ptr %12, align 8
  %14 = tail call noundef ptr %13(ptr noundef nonnull align 8 dereferenceable(12) %10)
  %15 = getelementptr inbounds nuw i8, ptr %14, i64 32
  %16 = tail call noundef i64 @_ZNKSt7__cxx1112basic_stringIcSt11char_traitsIcESaIcEE4findEPKcmm(ptr noundef nonnull align 8 dereferenceable(32) %15, ptr noundef nonnull @.str.5, i64 noundef 0, i64 noundef 3) #22
  %.not27 = icmp eq i64 %16, -1
  br i1 %.not27, label %17, label %.thread

17:                                               ; preds = %7
  %18 = tail call noundef ptr @_Z17find_related_factRKSt6vectorIPK4FactSaIS2_EES2_(ptr noundef nonnull align 8 dereferenceable(24) %1, ptr noundef nonnull %10)
  %19 = icmp eq ptr %18, null
  br i1 %19, label %20, label %.thread23

20:                                               ; preds = %17
  %21 = getelementptr inbounds nuw i8, ptr %10, i64 8
  %22 = load i32, ptr %21, align 8, !tbaa !136
  switch i32 %22, label %.thread [
    i32 1, label %23
    i32 2, label %30
  ]

23:                                               ; preds = %20
  %24 = load ptr, ptr %10, align 8, !tbaa !36
  %25 = getelementptr inbounds nuw i8, ptr %24, i64 120
  %26 = load ptr, ptr %25, align 8
  %27 = tail call noundef ptr %26(ptr noundef nonnull align 8 dereferenceable(12) %10)
  %28 = load ptr, ptr @_ZN11FactPointTo11garbage_ptrE, align 8, !tbaa !107
  %29 = tail call noundef ptr @_ZN11FactPointTo9make_factEPK8VariableS2_(ptr noundef %27, ptr noundef %28)
  br label %36

30:                                               ; preds = %20
  %31 = load ptr, ptr %10, align 8, !tbaa !36
  %32 = getelementptr inbounds nuw i8, ptr %31, i64 120
  %33 = load ptr, ptr %32, align 8
  %34 = tail call noundef ptr %33(ptr noundef nonnull align 8 dereferenceable(12) %10)
  %35 = tail call noundef ptr @_ZN9FactUnion9make_factEPK8Variablei(ptr noundef %34, i32 noundef %6)
  br label %36

36:                                               ; preds = %23, %30
  %.0 = phi ptr [ %29, %23 ], [ %35, %30 ]
  %.not = icmp eq ptr %.0, null
  br i1 %.not, label %.thread, label %.thread23

.thread23:                                        ; preds = %17, %36
  %.026 = phi ptr [ %.0, %36 ], [ %18, %17 ]
  %37 = tail call noundef zeroext i1 @_Z10merge_factRSt6vectorIPK4FactSaIS2_EES2_(ptr noundef nonnull align 8 dereferenceable(24) %0, ptr noundef nonnull %.026)
  %spec.select = select i1 %37, i1 true, i1 %.01728
  br label %.thread

.thread:                                          ; preds = %20, %.thread23, %36, %7
  %.1 = phi i1 [ %.01728, %7 ], [ %.01728, %36 ], [ %spec.select, %.thread23 ], [ %.01728, %20 ]
  %38 = add nuw i64 %.01629, 1
  %39 = load ptr, ptr %3, align 8, !tbaa !14
  %40 = load ptr, ptr %0, align 8, !tbaa !16
  %41 = ptrtoint ptr %39 to i64
  %42 = ptrtoint ptr %40 to i64
  %43 = sub i64 %41, %42
  %44 = ashr exact i64 %43, 3
  %45 = icmp ult i64 %38, %44
  br i1 %45, label %7, label %._crit_edge, !llvm.loop !242

._crit_edge:                                      ; preds = %.thread, %2
  %.017.lcssa = phi i1 [ false, %2 ], [ %.1, %.thread ]
  ret i1 %.017.lcssa
}